target datalayout = "e-m:e-p270:32:32-p271:32:32-p272:64:64-i64:64-i128:128-f80:128-n8:16:32:64-S128"
target triple = "x86_64-pc-linux-gnu"

@hf_GIAS_RelatedFile_file_type = internal global i32 0, align 4
@hf_UCO_FileLocation_user_name = internal global i32 0, align 4
@hf_UCO_FileLocation_password = internal global i32 0, align 4
@hf_UCO_FileLocation_host_name = internal global i32 0, align 4
@hf_UCO_FileLocation_path_name = internal global i32 0, align 4
@hf_UCO_FileLocation_file_name = internal global i32 0, align 4
@ett_giop_struct = internal global i32 0, align 4
@boundary = internal global i32 12, align 4
@.str.857 = private unnamed_addr constant [24 x i8] c"struct UCO_FileLocation\00", align 1

; Function Attrs: null_pointer_is_valid sspstrong uwtable
define internal void @decode_UCO_FileLocation_st(ptr noundef %0, ptr noundef %1, ptr noundef %2, ptr noundef %3, ptr noundef %4, ptr noundef %5, ptr noundef %6, i1 noundef zeroext %7) #0 {
  %9 = alloca ptr, align 8
  %10 = alloca ptr, align 8
  %11 = alloca ptr, align 8
  %12 = alloca ptr, align 8
  %13 = alloca ptr, align 8
  %14 = alloca ptr, align 8
  %15 = alloca ptr, align 8
  %16 = alloca i8, align 1
  store ptr %0, ptr %9, align 8
  store ptr %1, ptr %10, align 8
  store ptr %2, ptr %11, align 8
  store ptr %3, ptr %12, align 8
  store ptr %4, ptr %13, align 8
  store ptr %5, ptr %14, align 8
  store ptr %6, ptr %15, align 8
  %17 = zext i1 %7 to i8
  store i8 %17, ptr %16, align 1
  %18 = load ptr, ptr %11, align 8
  %19 = load ptr, ptr %9, align 8
  %20 = load ptr, ptr %13, align 8
  %21 = load i8, ptr %16, align 1, !range !6, !noundef !7
  %22 = trunc i8 %21 to i1
  %23 = load i32, ptr @boundary, align 4
  %24 = load i32, ptr @hf_UCO_FileLocation_user_name, align 4
  call void @giop_add_CDR_string(ptr noundef %18, ptr noundef %19, ptr noundef %20, i1 noundef zeroext %22, i32 noundef %23, i32 noundef %24)
  %25 = load ptr, ptr %11, align 8
  %26 = load ptr, ptr %9, align 8
  %27 = load ptr, ptr %13, align 8
  %28 = load i8, ptr %16, align 1, !range !6, !noundef !7
  %29 = trunc i8 %28 to i1
  %30 = load i32, ptr @boundary, align 4
  %31 = load i32, ptr @hf_UCO_FileLocation_password, align 4
  call void @giop_add_CDR_string(ptr noundef %25, ptr noundef %26, ptr noundef %27, i1 noundef zeroext %29, i32 noundef %30, i32 noundef %31)
  %32 = load ptr, ptr %11, align 8
  %33 = load ptr, ptr %9, align 8
  %34 = load ptr, ptr %13, align 8
  %35 = load i8, ptr %16, align 1, !range !6, !noundef !7
  %36 = trunc i8 %35 to i1
  %37 = load i32, ptr @boundary, align 4
  %38 = load i32, ptr @hf_UCO_FileLocation_host_name, align 4
  call void @giop_add_CDR_string(ptr noundef %32, ptr noundef %33, ptr noundef %34, i1 noundef zeroext %36, i32 noundef %37, i32 noundef %38)
  %39 = load ptr, ptr %11, align 8
  %40 = load ptr, ptr %9, align 8
  %41 = load ptr, ptr %13, align 8
  %42 = load i8, ptr %16, align 1, !range !6, !noundef !7
  %43 = trunc i8 %42 to i1
  %44 = load i32, ptr @boundary, align 4
  %45 = load i32, ptr @hf_UCO_FileLocation_path_name, align 4
  call void @giop_add_CDR_string(ptr noundef %39, ptr noundef %40, ptr noundef %41, i1 noundef zeroext %43, i32 noundef %44, i32 noundef %45)
  %46 = load ptr, ptr %11, align 8
  %47 = load ptr, ptr %9, align 8
  %48 = load ptr, ptr %13, align 8
  %49 = load i8, ptr %16, align 1, !range !6, !noundef !7
  %50 = trunc i8 %49 to i1
  %51 = load i32, ptr @boundary, align 4
  %52 = load i32, ptr @hf_UCO_FileLocation_file_name, align 4
  call void @giop_add_CDR_string(ptr noundef %46, ptr noundef %47, ptr noundef %48, i1 noundef zeroext %50, i32 noundef %51, i32 noundef %52)
  ret void
}

; Function Attrs: null_pointer_is_valid sspstrong uwtable
define internal void @decode_GIAS_RelatedFile_st(ptr noundef %0, ptr noundef %1, ptr noundef %2, ptr noundef %3, ptr noundef %4, ptr noundef %5, ptr noundef %6, i1 noundef zeroext %7) #0 {
  %9 = alloca ptr, align 8
  %10 = alloca ptr, align 8
  %11 = alloca ptr, align 8
  %12 = alloca ptr, align 8
  %13 = alloca ptr, align 8
  %14 = alloca ptr, align 8
  %15 = alloca ptr, align 8
  %16 = alloca i8, align 1
  %17 = alloca ptr, align 8
  store ptr %0, ptr %9, align 8
  store ptr %1, ptr %10, align 8
  store ptr %2, ptr %11, align 8
  store ptr %3, ptr %12, align 8
  store ptr %4, ptr %13, align 8
  store ptr %5, ptr %14, align 8
  store ptr %6, ptr %15, align 8
  %18 = zext i1 %7 to i8
  store i8 %18, ptr %16, align 1
  %19 = load ptr, ptr %11, align 8
  %20 = load ptr, ptr %9, align 8
  %21 = load ptr, ptr %13, align 8
  %22 = load i8, ptr %16, align 1, !range !6, !noundef !7
  %23 = trunc i8 %22 to i1
  %24 = load i32, ptr @boundary, align 4
  %25 = load i32, ptr @hf_GIAS_RelatedFile_file_type, align 4
  call void @giop_add_CDR_string(ptr noundef %19, ptr noundef %20, ptr noundef %21, i1 noundef zeroext %23, i32 noundef %24, i32 noundef %25)
  call void @llvm.lifetime.start.p0(i64 8, ptr %17) #6
  %26 = load ptr, ptr %11, align 8
  %27 = load ptr, ptr %9, align 8
  %28 = load ptr, ptr %13, align 8
  %29 = load i32, ptr %28, align 4
  %30 = load i32, ptr @ett_giop_struct, align 4
  %31 = call ptr @proto_tree_add_subtree(ptr noundef %26, ptr noundef %27, i32 noundef %29, i32 noundef -1, i32 noundef %30, ptr noundef null, ptr noundef @.str.857)
  store ptr %31, ptr %17, align 8
  %32 = load ptr, ptr %9, align 8
  %33 = load ptr, ptr %10, align 8
  %34 = load ptr, ptr %17, align 8
  %35 = load ptr, ptr %12, align 8
  %36 = load ptr, ptr %13, align 8
  %37 = load ptr, ptr %14, align 8
  %38 = load ptr, ptr %15, align 8
  %39 = load i8, ptr %16, align 1, !range !6, !noundef !7
  %40 = trunc i8 %39 to i1
  call void @decode_UCO_FileLocation_st(ptr noundef %32, ptr noundef %33, ptr noundef %34, ptr noundef %35, ptr noundef %36, ptr noundef %37, ptr noundef %38, i1 noundef zeroext %40)
  call void @llvm.lifetime.end.p0(i64 8, ptr %17) #6
  ret void
}