; Function Attrs: null_pointer_is_valid sspstrong uwtable
define internal fastcc void @decode_GIAS_RelatedFile_st(ptr noundef %0, ptr noundef %1, ptr noundef %2, i1 noundef zeroext %3) unnamed_addr #0 {
  %5 = load i32, ptr @hf_GIAS_RelatedFile_file_type, align 4
  tail call void @giop_add_CDR_string(ptr noundef %1, ptr noundef %0, ptr noundef %2, i1 noundef zeroext %3, i32 noundef 12, i32 noundef %5)
  %6 = load i32, ptr %2, align 4
  %7 = load i32, ptr @ett_giop_struct, align 4
  %8 = tail call ptr @proto_tree_add_subtree(ptr noundef %1, ptr noundef %0, i32 noundef %6, i32 noundef -1, i32 noundef %7, ptr noundef null, ptr noundef nonnull @.str.857)
  %9 = load i32, ptr @hf_UCO_FileLocation_user_name, align 4
  tail call void @giop_add_CDR_string(ptr noundef %8, ptr noundef %0, ptr noundef %2, i1 noundef zeroext %3, i32 noundef 12, i32 noundef %9)
  %10 = load i32, ptr @hf_UCO_FileLocation_password, align 4
  tail call void @giop_add_CDR_string(ptr noundef %8, ptr noundef %0, ptr noundef %2, i1 noundef zeroext %3, i32 noundef 12, i32 noundef %10)
  %11 = load i32, ptr @hf_UCO_FileLocation_host_name, align 4
  tail call void @giop_add_CDR_string(ptr noundef %8, ptr noundef %0, ptr noundef %2, i1 noundef zeroext %3, i32 noundef 12, i32 noundef %11)
  %12 = load i32, ptr @hf_UCO_FileLocation_path_name, align 4
  tail call void @giop_add_CDR_string(ptr noundef %8, ptr noundef %0, ptr noundef %2, i1 noundef zeroext %3, i32 noundef 12, i32 noundef %12)
  %13 = load i32, ptr @hf_UCO_FileLocation_file_name, align 4
  tail call void @giop_add_CDR_string(ptr noundef %8, ptr noundef %0, ptr noundef %2, i1 noundef zeroext %3, i32 noundef 12, i32 noundef %13)
  ret void
}